target datalayout = "e-m:e-p270:32:32-p271:32:32-p272:64:64-i64:64-i128:128-f80:128-n8:16:32:64-S128"
target triple = "x86_64-pc-linux-gnu"

%struct.CSzFile = type { ptr, ptr }

; Function Attrs: nounwind uwtable
define i32 @File_Close(ptr noundef %0) #0 {
  %2 = alloca i32, align 4
  %3 = alloca ptr, align 8
  %4 = alloca i32, align 4
  %5 = alloca i32, align 4
  store ptr %0, ptr %3, align 8, !tbaa !3
  %6 = load ptr, ptr %3, align 8, !tbaa !3
  %7 = getelementptr inbounds nuw %struct.CSzFile, ptr %6, i32 0, i32 0
  %8 = load ptr, ptr %7, align 8, !tbaa !7
  %9 = icmp ne ptr %8, null
  br i1 %9, label %10, label %25

10:                                               ; preds = %1
  call void @llvm.lifetime.start.p0(i64 4, ptr %4) #6
  %11 = load ptr, ptr %3, align 8, !tbaa !3
  %12 = getelementptr inbounds nuw %struct.CSzFile, ptr %11, i32 0, i32 0
  %13 = load ptr, ptr %12, align 8, !tbaa !7
  %14 = call i32 @fclose(ptr noundef %13)
  store i32 %14, ptr %4, align 4, !tbaa !13
  %15 = load i32, ptr %4, align 4, !tbaa !13
  %16 = icmp ne i32 %15, 0
  br i1 %16, label %17, label %19

17:                                               ; preds = %10
  %18 = load i32, ptr %4, align 4, !tbaa !13
  store i32 %18, ptr %2, align 4
  store i32 1, ptr %5, align 4
  br label %22

19:                                               ; preds = %10
  %20 = load ptr, ptr %3, align 8, !tbaa !3
  %21 = getelementptr inbounds nuw %struct.CSzFile, ptr %20, i32 0, i32 0
  store ptr null, ptr %21, align 8, !tbaa !7
  store i32 0, ptr %5, align 4
  br label %22

22:                                               ; preds = %19, %17
  call void @llvm.lifetime.end.p0(i64 4, ptr %4) #6
  %23 = load i32, ptr %5, align 4
  switch i32 %23, label %28 [
    i32 0, label %24
    i32 1, label %26
  ]

24:                                               ; preds = %22
  br label %25

25:                                               ; preds = %24, %1
  store i32 0, ptr %2, align 4
  br label %26

26:                                               ; preds = %25, %22
  %27 = load i32, ptr %2, align 4
  ret i32 %27

28:                                               ; preds = %22
  unreachable
}