; Function Attrs: nofree nounwind uwtable
define noundef i32 @File_Close(ptr noundef captures(none) %0) local_unnamed_addr #1 {
  %2 = load ptr, ptr %0, align 8, !tbaa !3
  %.not = icmp eq ptr %2, null
  br i1 %.not, label %5, label %3

3:                                                ; preds = %1
  %4 = tail call i32 @fclose(ptr noundef nonnull %2)
  %.not8.not = icmp eq i32 %4, 0
  br i1 %.not8.not, label %.thread, label %5

.thread:                                          ; preds = %3
  store ptr null, ptr %0, align 8, !tbaa !3
  br label %5

5:                                                ; preds = %1, %.thread, %3
  %.1 = phi i32 [ %4, %3 ], [ 0, %.thread ], [ 0, %1 ]
  ret i32 %.1
}